; Function Attrs: nounwind uwtable
define dso_local range(i32 -30, 1) i32 @archive_read_disk_set_gname_lookup(ptr noundef %0, ptr noundef %1, ptr noundef %2, ptr noundef %3) local_unnamed_addr #0 {
  %5 = tail call i32 @__archive_check_magic(ptr noundef %0, i32 noundef 195932357, i32 noundef 32767, ptr noundef nonnull @.str.2) #17
  %6 = icmp eq i32 %5, -30
  br i1 %6, label %17, label %7

7:                                                ; preds = %4
  %8 = getelementptr inbounds nuw i8, ptr %0, i64 208
  %9 = load ptr, ptr %8, align 8
  %.not = icmp eq ptr %9, null
  br i1 %.not, label %14, label %10

10:                                               ; preds = %7
  %11 = getelementptr inbounds nuw i8, ptr %0, i64 216
  %12 = load ptr, ptr %11, align 8
  %.not15 = icmp eq ptr %12, null
  br i1 %.not15, label %14, label %13

13:                                               ; preds = %10
  tail call void %9(ptr noundef nonnull %12) #17
  br label %14

14:                                               ; preds = %13, %10, %7
  %15 = getelementptr inbounds nuw i8, ptr %0, i64 200
  store ptr %2, ptr %15, align 8
  store ptr %3, ptr %8, align 8
  %16 = getelementptr inbounds nuw i8, ptr %0, i64 216
  store ptr %1, ptr %16, align 8
  br label %17

17:                                               ; preds = %4, %14
  %.0 = phi i32 [ 0, %14 ], [ -30, %4 ]
  ret i32 %.0
}